target datalayout = "e-m:e-p270:32:32-p271:32:32-p272:64:64-i64:64-i128:128-f80:128-n8:16:32:64-S128"
target triple = "x86_64-pc-linux-gnu"

%"class.pxrInternal_v0_24__pxrReserved__::VtValue" = type { %"union.std::aligned_storage<8, 8>::type", %"class.pxrInternal_v0_24__pxrReserved__::TfPointerAndBits" }
%"union.std::aligned_storage<8, 8>::type" = type { [8 x i8] }
%"class.pxrInternal_v0_24__pxrReserved__::TfPointerAndBits" = type { ptr }
%"struct.pxrInternal_v0_24__pxrReserved__::VtValue::_TypeInfo" = type { ptr, ptr, i32, i8, i8, i8, ptr, ptr, ptr, ptr, ptr, ptr, ptr, ptr, ptr, ptr, ptr, ptr, ptr, ptr, ptr, ptr, ptr, ptr, ptr, ptr }
%"class.pxrInternal_v0_24__pxrReserved__::TfPyObjWrapper" = type { %"class.pxrInternal_v0_24__pxrReserved__::TfPyObjWrapperStub" }
%"class.pxrInternal_v0_24__pxrReserved__::TfPyObjWrapperStub" = type { %"union.std::aligned_storage<16, 8>::type" }
%"union.std::aligned_storage<16, 8>::type" = type { [16 x i8] }

; Function Attrs: mustprogress nounwind uwtable
define linkonce_odr noundef i64 @_ZN32pxrInternal_v0_24__pxrReserved__16TfPointerAndBitsIKNS_7VtValue9_TypeInfoEE9_GetAlignEv() #1 comdat align 2 {
  ret i64 8
}

; Function Attrs: noreturn nounwind uwtable
define linkonce_odr hidden void @__clang_call_terminate(ptr noundef %0) #11 comdat {
  %2 = call ptr @__cxa_begin_catch(ptr %0) #10
  call void @_ZSt9terminatev() #18
  unreachable
}

; Function Attrs: mustprogress nounwind uwtable
define linkonce_odr noundef i64 @_ZNK32pxrInternal_v0_24__pxrReserved__16TfPointerAndBitsIKNS_7VtValue9_TypeInfoEE11GetMaxValueEv(ptr noundef nonnull align 8 dereferenceable(8) %0) #1 comdat align 2 {
  %2 = alloca ptr, align 8
  store ptr %0, ptr %2, align 8
  %3 = call noundef i64 @_ZN32pxrInternal_v0_24__pxrReserved__16TfPointerAndBitsIKNS_7VtValue9_TypeInfoEE9_GetAlignEv() #10
  %4 = sub i64 %3, 1
  ret i64 %4
}

; Function Attrs: mustprogress nounwind uwtable
define linkonce_odr noundef ptr @_ZNK32pxrInternal_v0_24__pxrReserved__16TfPointerAndBitsIKNS_7VtValue9_TypeInfoEE6_AsPtrEm(ptr noundef nonnull align 8 dereferenceable(8) %0, i64 noundef %1) #1 comdat align 2 {
  %3 = alloca ptr, align 8
  %4 = alloca i64, align 8
  store ptr %0, ptr %3, align 8
  store i64 %1, ptr %4, align 8
  %5 = load i64, ptr %4, align 8
  %6 = inttoptr i64 %5 to ptr
  ret ptr %6
}

; Function Attrs: mustprogress nounwind uwtable
define linkonce_odr noundef i64 @_ZNK32pxrInternal_v0_24__pxrReserved__16TfPointerAndBitsIKNS_7VtValue9_TypeInfoEE11_GetBitMaskEv(ptr noundef nonnull align 8 dereferenceable(8) %0) #1 comdat align 2 personality ptr @__gxx_personality_v0 {
  %2 = alloca ptr, align 8
  store ptr %0, ptr %2, align 8
  %3 = load ptr, ptr %2, align 8
  %4 = invoke noundef i64 @_ZNK32pxrInternal_v0_24__pxrReserved__16TfPointerAndBitsIKNS_7VtValue9_TypeInfoEE11GetMaxValueEv(ptr noundef nonnull align 8 dereferenceable(8) %3)
          to label %5 unwind label %6

5:                                                ; preds = %1
  ret i64 %4

6:                                                ; preds = %1
  %7 = landingpad { ptr, i32 }
          catch ptr null
  %8 = extractvalue { ptr, i32 } %7, 0
  call void @__clang_call_terminate(ptr %8) #18
  unreachable
}

; Function Attrs: mustprogress nounwind uwtable
define linkonce_odr noundef ptr @_ZNK32pxrInternal_v0_24__pxrReserved__16TfPointerAndBitsIKNS_7VtValue9_TypeInfoEE7_GetPtrEv(ptr noundef nonnull align 8 dereferenceable(8) %0) #1 comdat align 2 {
  %2 = alloca ptr, align 8
  store ptr %0, ptr %2, align 8
  %3 = load ptr, ptr %2, align 8
  %4 = getelementptr inbounds nuw %"class.pxrInternal_v0_24__pxrReserved__::TfPointerAndBits", ptr %3, i32 0, i32 0
  %5 = load ptr, ptr %4, align 8
  %6 = call noundef i64 @_ZNK32pxrInternal_v0_24__pxrReserved__16TfPointerAndBitsIKNS_7VtValue9_TypeInfoEE6_AsIntEPS3_(ptr noundef nonnull align 8 dereferenceable(8) %3, ptr noundef %5) #10
  %7 = call noundef i64 @_ZNK32pxrInternal_v0_24__pxrReserved__16TfPointerAndBitsIKNS_7VtValue9_TypeInfoEE11_GetBitMaskEv(ptr noundef nonnull align 8 dereferenceable(8) %3) #10
  %8 = xor i64 %7, -1
  %9 = and i64 %6, %8
  %10 = call noundef ptr @_ZNK32pxrInternal_v0_24__pxrReserved__16TfPointerAndBitsIKNS_7VtValue9_TypeInfoEE6_AsPtrEm(ptr noundef nonnull align 8 dereferenceable(8) %3, i64 noundef %9) #10
  ret ptr %10
}

; Function Attrs: mustprogress nounwind uwtable
define linkonce_odr noundef i64 @_ZNK32pxrInternal_v0_24__pxrReserved__16TfPointerAndBitsIKNS_7VtValue9_TypeInfoEE6_AsIntEPS3_(ptr noundef nonnull align 8 dereferenceable(8) %0, ptr noundef %1) #1 comdat align 2 {
  %3 = alloca ptr, align 8
  %4 = alloca ptr, align 8
  store ptr %0, ptr %3, align 8
  store ptr %1, ptr %4, align 8
  %5 = load ptr, ptr %4, align 8
  %6 = ptrtoint ptr %5 to i64
  ret i64 %6
}

; Function Attrs: mustprogress uwtable
define linkonce_odr { i64, i64 } @_ZNK32pxrInternal_v0_24__pxrReserved__7VtValue9_TypeInfo8GetPyObjERKNSt15aligned_storageILm8ELm8EE4typeE(ptr noundef nonnull align 8 dereferenceable(184) %0, ptr noundef nonnull align 8 dereferenceable(8) %1) #0 comdat align 2 {
  %3 = alloca %"class.pxrInternal_v0_24__pxrReserved__::TfPyObjWrapper", align 8
  %4 = alloca ptr, align 8
  %5 = alloca ptr, align 8
  store ptr %0, ptr %4, align 8
  store ptr %1, ptr %5, align 8
  %6 = load ptr, ptr %4, align 8
  %7 = getelementptr inbounds nuw %"struct.pxrInternal_v0_24__pxrReserved__::VtValue::_TypeInfo", ptr %6, i32 0, i32 14
  %8 = load ptr, ptr %7, align 8
  %9 = load ptr, ptr %5, align 8
  %10 = call { i64, i64 } %8(ptr noundef nonnull align 8 dereferenceable(8) %9)
  %11 = getelementptr inbounds nuw %"class.pxrInternal_v0_24__pxrReserved__::TfPyObjWrapper", ptr %3, i32 0, i32 0
  %12 = getelementptr inbounds nuw %"class.pxrInternal_v0_24__pxrReserved__::TfPyObjWrapperStub", ptr %11, i32 0, i32 0
  %13 = getelementptr inbounds nuw %"union.std::aligned_storage<16, 8>::type", ptr %12, i32 0, i32 0
  %14 = getelementptr inbounds nuw { i64, i64 }, ptr %13, i32 0, i32 0
  %15 = extractvalue { i64, i64 } %10, 0
  store i64 %15, ptr %14, align 8
  %16 = getelementptr inbounds nuw { i64, i64 }, ptr %13, i32 0, i32 1
  %17 = extractvalue { i64, i64 } %10, 1
  store i64 %17, ptr %16, align 8
  %18 = getelementptr inbounds nuw %"class.pxrInternal_v0_24__pxrReserved__::TfPyObjWrapper", ptr %3, i32 0, i32 0
  %19 = getelementptr inbounds nuw %"class.pxrInternal_v0_24__pxrReserved__::TfPyObjWrapperStub", ptr %18, i32 0, i32 0
  %20 = getelementptr inbounds nuw %"union.std::aligned_storage<16, 8>::type", ptr %19, i32 0, i32 0
  %21 = load { i64, i64 }, ptr %20, align 8
  ret { i64, i64 } %21
}

; Function Attrs: mustprogress nounwind uwtable
define linkonce_odr noundef ptr @_ZNK32pxrInternal_v0_24__pxrReserved__16TfPointerAndBitsIKNS_7VtValue9_TypeInfoEE3GetEv(ptr noundef nonnull align 8 dereferenceable(8) %0) #1 comdat align 2 {
  %2 = alloca ptr, align 8
  store ptr %0, ptr %2, align 8
  %3 = load ptr, ptr %2, align 8
  %4 = call noundef ptr @_ZNK32pxrInternal_v0_24__pxrReserved__16TfPointerAndBitsIKNS_7VtValue9_TypeInfoEE7_GetPtrEv(ptr noundef nonnull align 8 dereferenceable(8) %3) #10
  ret ptr %4
}

; Function Attrs: mustprogress nounwind uwtable
define linkonce_odr noundef i64 @_ZNK32pxrInternal_v0_24__pxrReserved__16TfPointerAndBitsIKNS_7VtValue9_TypeInfoEE10GetLiteralEv(ptr noundef nonnull align 8 dereferenceable(8) %0) #1 comdat align 2 {
  %2 = alloca ptr, align 8
  store ptr %0, ptr %2, align 8
  %3 = load ptr, ptr %2, align 8
  %4 = getelementptr inbounds nuw %"class.pxrInternal_v0_24__pxrReserved__::TfPointerAndBits", ptr %3, i32 0, i32 0
  %5 = load ptr, ptr %4, align 8
  %6 = call noundef i64 @_ZNK32pxrInternal_v0_24__pxrReserved__16TfPointerAndBitsIKNS_7VtValue9_TypeInfoEE6_AsIntEPS3_(ptr noundef nonnull align 8 dereferenceable(8) %3, ptr noundef %5) #10
  ret i64 %6
}

; Function Attrs: mustprogress uwtable
define { i64, i64 } @_ZNK32pxrInternal_v0_24__pxrReserved__7VtValue16_GetPythonObjectEv(ptr noundef nonnull align 8 dereferenceable(16) %0) #0 align 2 {
  %2 = alloca %"class.pxrInternal_v0_24__pxrReserved__::TfPyObjWrapper", align 8
  %3 = alloca ptr, align 8
  store ptr %0, ptr %3, align 8
  %4 = load ptr, ptr %3, align 8
  %5 = getelementptr inbounds nuw %"class.pxrInternal_v0_24__pxrReserved__::VtValue", ptr %4, i32 0, i32 1
  %6 = call noundef i64 @_ZNK32pxrInternal_v0_24__pxrReserved__16TfPointerAndBitsIKNS_7VtValue9_TypeInfoEE10GetLiteralEv(ptr noundef nonnull align 8 dereferenceable(8) %5) #10
  %7 = icmp ne i64 %6, 0
  br i1 %7, label %8, label %20

8:                                                ; preds = %1
  %9 = getelementptr inbounds nuw %"class.pxrInternal_v0_24__pxrReserved__::VtValue", ptr %4, i32 0, i32 1
  %10 = call noundef ptr @_ZNK32pxrInternal_v0_24__pxrReserved__16TfPointerAndBitsIKNS_7VtValue9_TypeInfoEE3GetEv(ptr noundef nonnull align 8 dereferenceable(8) %9) #10
  %11 = getelementptr inbounds nuw %"class.pxrInternal_v0_24__pxrReserved__::VtValue", ptr %4, i32 0, i32 0
  %12 = call { i64, i64 } @_ZNK32pxrInternal_v0_24__pxrReserved__7VtValue9_TypeInfo8GetPyObjERKNSt15aligned_storageILm8ELm8EE4typeE(ptr noundef nonnull align 8 dereferenceable(184) %10, ptr noundef nonnull align 8 dereferenceable(8) %11)
  %13 = getelementptr inbounds nuw %"class.pxrInternal_v0_24__pxrReserved__::TfPyObjWrapper", ptr %2, i32 0, i32 0
  %14 = getelementptr inbounds nuw %"class.pxrInternal_v0_24__pxrReserved__::TfPyObjWrapperStub", ptr %13, i32 0, i32 0
  %15 = getelementptr inbounds nuw %"union.std::aligned_storage<16, 8>::type", ptr %14, i32 0, i32 0
  %16 = getelementptr inbounds nuw { i64, i64 }, ptr %15, i32 0, i32 0
  %17 = extractvalue { i64, i64 } %12, 0
  store i64 %17, ptr %16, align 8
  %18 = getelementptr inbounds nuw { i64, i64 }, ptr %15, i32 0, i32 1
  %19 = extractvalue { i64, i64 } %12, 1
  store i64 %19, ptr %18, align 8
  br label %21

20:                                               ; preds = %1
  call void @llvm.memset.p0.i64(ptr align 8 %2, i8 0, i64 16, i1 false)
  br label %21

21:                                               ; preds = %20, %8
  %22 = getelementptr inbounds nuw %"class.pxrInternal_v0_24__pxrReserved__::TfPyObjWrapper", ptr %2, i32 0, i32 0
  %23 = getelementptr inbounds nuw %"class.pxrInternal_v0_24__pxrReserved__::TfPyObjWrapperStub", ptr %22, i32 0, i32 0
  %24 = getelementptr inbounds nuw %"union.std::aligned_storage<16, 8>::type", ptr %23, i32 0, i32 0
  %25 = load { i64, i64 }, ptr %24, align 8
  ret { i64, i64 } %25
}