; Function Attrs: mustprogress uwtable
define { i64, i64 } @_ZNK32pxrInternal_v0_24__pxrReserved__7VtValue16_GetPythonObjectEv(ptr noundef nonnull align 8 dereferenceable(16) %0) local_unnamed_addr #0 align 2 personality ptr @__gxx_personality_v0 {
  %2 = getelementptr inbounds nuw i8, ptr %0, i64 8
  %3 = load ptr, ptr %2, align 8
  %.not = icmp eq ptr %3, null
  br i1 %.not, label %13, label %4

4:                                                ; preds = %1
  %5 = ptrtoint ptr %3 to i64
  %6 = and i64 %5, -8
  %7 = inttoptr i64 %6 to ptr
  %8 = getelementptr inbounds nuw i8, ptr %7, i64 88
  %9 = load ptr, ptr %8, align 8
  %10 = tail call { i64, i64 } %9(ptr noundef nonnull align 8 dereferenceable(8) %0)
  %11 = extractvalue { i64, i64 } %10, 0
  %12 = extractvalue { i64, i64 } %10, 1
  br label %13

13:                                               ; preds = %1, %4
  %.sroa.3.0 = phi i64 [ %12, %4 ], [ 0, %1 ]
  %.sroa.0.0 = phi i64 [ %11, %4 ], [ 0, %1 ]
  %.fca.0.insert = insertvalue { i64, i64 } poison, i64 %.sroa.0.0, 0
  %.fca.1.insert = insertvalue { i64, i64 } %.fca.0.insert, i64 %.sroa.3.0, 1
  ret { i64, i64 } %.fca.1.insert
}